target datalayout = "e-m:e-p270:32:32-p271:32:32-p272:64:64-i64:64-i128:128-f80:128-n8:16:32:64-S128"
target triple = "x86_64-pc-linux-gnu"

%struct.expert_field = type { i32, i32 }

@hf_binp_request = internal global i32 0, align 4
@hf_binp_response = internal global i32 0, align 4
@ei_binp = internal global %struct.expert_field zeroinitializer, align 4

; Function Attrs: alwaysinline nounwind
define internal ptr @memcpy.inline(ptr noalias %0, ptr noalias %1, i64 %2) #5 {
  %4 = alloca ptr, align 8
  %5 = alloca ptr, align 8
  %6 = alloca i64, align 8
  store ptr %0, ptr %4, align 8
  store ptr %1, ptr %5, align 8
  store i64 %2, ptr %6, align 8
  %7 = load ptr, ptr %4, align 8
  %8 = load ptr, ptr %5, align 8
  %9 = load i64, ptr %6, align 8
  %10 = load ptr, ptr %4, align 8
  %11 = call i64 @llvm.objectsize.i64.p0(ptr %10, i1 false, i1 true, i1 true)
  %12 = call ptr @__memcpy_chk(ptr noundef %7, ptr noundef %8, i64 noundef %9, i64 noundef %11) #11
  ret ptr %12
}

; Function Attrs: null_pointer_is_valid sspstrong uwtable
define internal i32 @get_uint_parameter(ptr noundef %0, i32 noundef %1) #0 {
  %3 = alloca ptr, align 8
  %4 = alloca i32, align 4
  %5 = alloca i32, align 4
  %6 = alloca ptr, align 8
  store ptr %0, ptr %3, align 8
  store i32 %1, ptr %4, align 4
  call void @llvm.lifetime.start.p0(i64 4, ptr %5) #11
  call void @llvm.lifetime.start.p0(i64 8, ptr %6) #11
  %7 = call ptr @wmem_packet_scope()
  %8 = load i32, ptr %4, align 4
  %9 = add i32 %8, 1
  %10 = sext i32 %9 to i64
  %11 = call noalias ptr @wmem_alloc(ptr noundef %7, i64 noundef %10) #12
  store ptr %11, ptr %6, align 8
  %12 = load ptr, ptr %6, align 8
  %13 = load ptr, ptr %3, align 8
  %14 = load i32, ptr %4, align 4
  %15 = sext i32 %14 to i64
  %16 = call ptr @memcpy.inline(ptr noundef %12, ptr noundef %13, i64 noundef %15) #11
  %17 = load ptr, ptr %6, align 8
  %18 = load i32, ptr %4, align 4
  %19 = sext i32 %18 to i64
  %20 = getelementptr i8, ptr %17, i64 %19
  store i8 0, ptr %20, align 1
  %21 = load ptr, ptr %6, align 8
  %22 = call i64 @g_ascii_strtoull(ptr noundef %21, ptr noundef null, i32 noundef 10)
  %23 = trunc i64 %22 to i32
  store i32 %23, ptr %5, align 4
  %24 = load i32, ptr %5, align 4
  call void @llvm.lifetime.end.p0(i64 8, ptr %6) #11
  call void @llvm.lifetime.end.p0(i64 4, ptr %5) #11
  ret i32 %24
}

; Function Attrs: null_pointer_is_valid sspstrong uwtable
define internal zeroext i1 @dissect_binp_parameter(ptr noundef %0, ptr noundef %1, ptr noundef %2, i32 noundef %3, i32 noundef %4, i16 noundef zeroext %5, ptr noundef %6, i32 noundef %7, i32 noundef %8, ptr noundef %9) #0 {
  %11 = alloca i1, align 1
  %12 = alloca ptr, align 8
  %13 = alloca ptr, align 8
  %14 = alloca ptr, align 8
  %15 = alloca i32, align 4
  %16 = alloca i32, align 4
  %17 = alloca i16, align 2
  %18 = alloca ptr, align 8
  %19 = alloca i32, align 4
  %20 = alloca i32, align 4
  %21 = alloca ptr, align 8
  %22 = alloca ptr, align 8
  %23 = alloca i32, align 4
  %24 = alloca i32, align 4
  store ptr %0, ptr %12, align 8
  store ptr %1, ptr %13, align 8
  store ptr %2, ptr %14, align 8
  store i32 %3, ptr %15, align 4
  store i32 %4, ptr %16, align 4
  store i16 %5, ptr %17, align 2
  store ptr %6, ptr %18, align 8
  store i32 %7, ptr %19, align 4
  store i32 %8, ptr %20, align 4
  store ptr %9, ptr %21, align 8
  call void @llvm.lifetime.start.p0(i64 8, ptr %22) #11
  call void @llvm.lifetime.start.p0(i64 4, ptr %23) #11
  %25 = load i32, ptr %16, align 4
  %26 = icmp eq i32 %25, 2
  br i1 %26, label %27, label %31

27:                                               ; preds = %10
  %28 = load i16, ptr %17, align 2
  %29 = zext i16 %28 to i32
  %30 = icmp eq i32 %29, 61
  br i1 %30, label %39, label %31

31:                                               ; preds = %27, %10
  %32 = load i32, ptr %16, align 4
  %33 = icmp eq i32 %32, 1
  br i1 %33, label %34, label %38

34:                                               ; preds = %31
  %35 = load i16, ptr %17, align 2
  %36 = zext i16 %35 to i32
  %37 = icmp eq i32 %36, 58
  br i1 %37, label %39, label %38

38:                                               ; preds = %34, %31
  store i1 false, ptr %11, align 1
  store i32 1, ptr %24, align 4
  br label %77

39:                                               ; preds = %34, %27
  %40 = load i32, ptr %16, align 4
  %41 = icmp eq i32 %40, 2
  br i1 %41, label %42, label %69

42:                                               ; preds = %39
  %43 = load i16, ptr %17, align 2
  %44 = zext i16 %43 to i32
  %45 = icmp eq i32 %44, 61
  br i1 %45, label %46, label %69

46:                                               ; preds = %42
  %47 = load i32, ptr %19, align 4
  %48 = icmp eq i32 %47, 0
  br i1 %48, label %49, label %67

49:                                               ; preds = %46
  %50 = load ptr, ptr %18, align 8
  %51 = load i32, ptr %20, align 4
  %52 = call i32 @get_uint_parameter(ptr noundef %50, i32 noundef %51)
  store i32 %52, ptr %23, align 4
  %53 = load ptr, ptr %14, align 8
  %54 = load i32, ptr @hf_binp_request, align 4
  %55 = load ptr, ptr %12, align 8
  %56 = load i32, ptr %15, align 4
  %57 = load i32, ptr %20, align 4
  %58 = load i32, ptr %23, align 4
  %59 = call ptr @proto_tree_add_uint(ptr noundef %53, i32 noundef %54, ptr noundef %55, i32 noundef %56, i32 noundef %57, i32 noundef %58)
  store ptr %59, ptr %22, align 8
  %60 = load i32, ptr %23, align 4
  %61 = icmp ne i32 %60, 1
  br i1 %61, label %62, label %66

62:                                               ; preds = %49
  %63 = load ptr, ptr %13, align 8
  %64 = load ptr, ptr %22, align 8
  %65 = call ptr @expert_add_info(ptr noundef %63, ptr noundef %64, ptr noundef @ei_binp)
  br label %66

66:                                               ; preds = %62, %49
  br label %68

67:                                               ; preds = %46
  store i1 false, ptr %11, align 1
  store i32 1, ptr %24, align 4
  br label %77

68:                                               ; preds = %66
  br label %76

69:                                               ; preds = %42, %39
  %70 = load ptr, ptr %14, align 8
  %71 = load i32, ptr @hf_binp_response, align 4
  %72 = load ptr, ptr %12, align 8
  %73 = load i32, ptr %15, align 4
  %74 = load i32, ptr %20, align 4
  %75 = call ptr @proto_tree_add_item(ptr noundef %70, i32 noundef %71, ptr noundef %72, i32 noundef %73, i32 noundef %74, i32 noundef 0)
  br label %76

76:                                               ; preds = %69, %68
  store i1 true, ptr %11, align 1
  store i32 1, ptr %24, align 4
  br label %77

77:                                               ; preds = %76, %67, %38
  call void @llvm.lifetime.end.p0(i64 4, ptr %23) #11
  call void @llvm.lifetime.end.p0(i64 8, ptr %22) #11
  %78 = load i1, ptr %11, align 1
  ret i1 %78
}