; Function Attrs: null_pointer_is_valid sspstrong uwtable
define internal noundef zeroext i1 @dissect_binp_parameter(ptr noundef %0, ptr noundef %1, ptr noundef %2, i32 noundef %3, i32 noundef %4, i16 noundef zeroext %5, ptr noundef readonly captures(none) %6, i32 noundef %7, i32 noundef %8, ptr readnone captures(none) %9) #0 {
  %11 = icmp eq i32 %4, 2
  %12 = icmp eq i16 %5, 61
  %or.cond = and i1 %11, %12
  br i1 %or.cond, label %.critedge, label %13

13:                                               ; preds = %10
  %14 = icmp eq i32 %4, 1
  %15 = icmp eq i16 %5, 58
  %or.cond5 = and i1 %14, %15
  br i1 %or.cond5, label %32, label %35

.critedge:                                        ; preds = %10
  %16 = icmp eq i32 %7, 0
  br i1 %16, label %17, label %35

17:                                               ; preds = %.critedge
  %18 = tail call ptr @wmem_packet_scope()
  %19 = add i32 %8, 1
  %20 = sext i32 %19 to i64
  %21 = tail call noalias ptr @wmem_alloc(ptr noundef %18, i64 noundef %20) #11
  %22 = sext i32 %8 to i64
  %23 = icmp ne i32 %19, -1
  tail call void @llvm.assume(i1 %23)
  %24 = tail call ptr @__memcpy_chk(ptr noundef %21, ptr noundef readonly %6, i64 noundef range(i64 -2147483648, 4294967296) %22, i64 noundef %20) #10, !alias.scope !101
  %25 = getelementptr i8, ptr %21, i64 %22
  store i8 0, ptr %25, align 1
  %26 = tail call i64 @g_ascii_strtoull(ptr noundef %21, ptr noundef null, i32 noundef 10)
  %27 = trunc i64 %26 to i32
  %28 = load i32, ptr @hf_binp_request, align 4
  %29 = tail call ptr @proto_tree_add_uint(ptr noundef %2, i32 noundef %28, ptr noundef %0, i32 noundef %3, i32 noundef %8, i32 noundef %27)
  %.not = icmp eq i32 %27, 1
  br i1 %.not, label %35, label %30

30:                                               ; preds = %17
  %31 = tail call ptr @expert_add_info(ptr noundef %1, ptr noundef %29, ptr noundef nonnull @ei_binp)
  br label %35

32:                                               ; preds = %13
  %33 = load i32, ptr @hf_binp_response, align 4
  %34 = tail call ptr @proto_tree_add_item(ptr noundef %2, i32 noundef %33, ptr noundef %0, i32 noundef %3, i32 noundef %8, i32 noundef 0)
  br label %35

35:                                               ; preds = %32, %17, %30, %.critedge, %13
  %.0 = phi i1 [ false, %13 ], [ false, %.critedge ], [ true, %30 ], [ true, %17 ], [ true, %32 ]
  ret i1 %.0
}